target datalayout = "e-m:e-p270:32:32-p271:32:32-p272:64:64-i64:64-i128:128-f80:128-n8:16:32:64-S128"
target triple = "x86_64-pc-linux-gnu"

%struct.Aes = type { [60 x i32], i32, i32, [8 x i8], [4 x i32], [4 x i32], [2 x i32], i32, [4 x i8], %struct.Gcm, ptr, [8 x i8] }
%struct.Gcm = type { [16 x i8], [32 x [16 x i8]] }
%struct.Gmac = type { %struct.Aes }

; Function Attrs: nounwind uwtable
define i32 @wc_GmacUpdate(ptr noundef %0, ptr noundef %1, i32 noundef %2, ptr noundef %3, i32 noundef %4, ptr noundef %5, i32 noundef %6) #0 {
  %8 = alloca i32, align 4
  %9 = alloca ptr, align 8
  %10 = alloca ptr, align 8
  %11 = alloca i32, align 4
  %12 = alloca ptr, align 8
  %13 = alloca i32, align 4
  %14 = alloca ptr, align 8
  %15 = alloca i32, align 4
  store ptr %0, ptr %9, align 8, !tbaa !44
  store ptr %1, ptr %10, align 8, !tbaa !8
  store i32 %2, ptr %11, align 4, !tbaa !10
  store ptr %3, ptr %12, align 8, !tbaa !8
  store i32 %4, ptr %13, align 4, !tbaa !10
  store ptr %5, ptr %14, align 8, !tbaa !8
  store i32 %6, ptr %15, align 4, !tbaa !10
  %16 = load ptr, ptr %9, align 8, !tbaa !44
  %17 = icmp eq ptr %16, null
  br i1 %17, label %18, label %19

18:                                               ; preds = %7
  store i32 -173, ptr %8, align 4
  br label %29

19:                                               ; preds = %7
  %20 = load ptr, ptr %9, align 8, !tbaa !44
  %21 = getelementptr inbounds nuw %struct.Gmac, ptr %20, i32 0, i32 0
  %22 = load ptr, ptr %10, align 8, !tbaa !8
  %23 = load i32, ptr %11, align 4, !tbaa !10
  %24 = load ptr, ptr %14, align 8, !tbaa !8
  %25 = load i32, ptr %15, align 4, !tbaa !10
  %26 = load ptr, ptr %12, align 8, !tbaa !8
  %27 = load i32, ptr %13, align 4, !tbaa !10
  %28 = call i32 @wc_AesGcmEncrypt(ptr noundef %21, ptr noundef null, ptr noundef null, i32 noundef 0, ptr noundef %22, i32 noundef %23, ptr noundef %24, i32 noundef %25, ptr noundef %26, i32 noundef %27)
  store i32 %28, ptr %8, align 4
  br label %29

29:                                               ; preds = %19, %18
  %30 = load i32, ptr %8, align 4
  ret i32 %30
}