; Function Attrs: nofree norecurse nosync nounwind memory(readwrite, inaccessiblemem: none) uwtable
define range(i32 -226, 1) i32 @wc_GmacUpdate(ptr noundef %0, ptr noundef %1, i32 noundef %2, ptr noundef %3, i32 noundef %4, ptr noundef %5, i32 noundef %6) local_unnamed_addr #6 {
  %8 = icmp eq ptr %0, null
  br i1 %8, label %11, label %9

9:                                                ; preds = %7
  %10 = tail call i32 @wc_AesGcmEncrypt(ptr noundef nonnull %0, ptr noundef null, ptr noundef null, i32 noundef 0, ptr noundef %1, i32 noundef %2, ptr noundef %5, i32 noundef %6, ptr noundef %3, i32 noundef %4)
  br label %11

11:                                               ; preds = %7, %9
  %.0 = phi i32 [ %10, %9 ], [ -173, %7 ]
  ret i32 %.0
}